; Function Attrs: nounwind uwtable
define range(i32 0, 2) i32 @Iso_ManCheckMapping(ptr noundef %0, ptr noundef readonly captures(none) %1, ptr noundef readonly captures(none) %2, i32 noundef %3) local_unnamed_addr #0 {
  tail call void @Aig_ManCleanData(ptr noundef %0) #24
  %5 = getelementptr i8, ptr %0, i64 48
  %.val50 = load ptr, ptr %5, align 8, !tbaa !44
  %6 = getelementptr i8, ptr %1, i64 48
  %.val49 = load ptr, ptr %6, align 8, !tbaa !44
  %7 = getelementptr inbounds nuw i8, ptr %.val49, i64 40
  store ptr %.val50, ptr %7, align 8, !tbaa !33
  %8 = getelementptr inbounds nuw i8, ptr %1, i64 16
  %9 = load ptr, ptr %8, align 8, !tbaa !46
  %10 = getelementptr i8, ptr %9, i64 4
  %.val4360 = load i32, ptr %10, align 4, !tbaa !26
  %11 = icmp sgt i32 %.val4360, 0
  br i1 %11, label %.lr.ph, label %.critedge.preheader

.lr.ph:                                           ; preds = %4
  %12 = getelementptr i8, ptr %2, i64 8
  %13 = getelementptr i8, ptr %0, i64 16
  br label %18

.critedge.preheader:                              ; preds = %18, %4
  %14 = getelementptr inbounds nuw i8, ptr %1, i64 32
  %15 = load ptr, ptr %14, align 8, !tbaa !51
  %16 = getelementptr i8, ptr %15, i64 4
  %.val4262 = load i32, ptr %16, align 4, !tbaa !26
  %17 = icmp sgt i32 %.val4262, 0
  br i1 %17, label %.lr.ph64, label %.critedge2

18:                                               ; preds = %.lr.ph, %18
  %indvars.iv = phi i64 [ 0, %.lr.ph ], [ %indvars.iv.next, %18 ]
  %19 = phi ptr [ %9, %.lr.ph ], [ %30, %18 ]
  %20 = getelementptr i8, ptr %19, i64 8
  %.val41 = load ptr, ptr %20, align 8, !tbaa !29
  %21 = getelementptr inbounds nuw ptr, ptr %.val41, i64 %indvars.iv
  %22 = load ptr, ptr %21, align 8, !tbaa !31
  %.val44 = load ptr, ptr %12, align 8, !tbaa !12
  %23 = getelementptr inbounds nuw i32, ptr %.val44, i64 %indvars.iv
  %24 = load i32, ptr %23, align 4, !tbaa !3
  %.val51 = load ptr, ptr %13, align 8, !tbaa !46
  %25 = getelementptr i8, ptr %.val51, i64 8
  %.val51.val = load ptr, ptr %25, align 8, !tbaa !29
  %26 = sext i32 %24 to i64
  %27 = getelementptr inbounds ptr, ptr %.val51.val, i64 %26
  %28 = load ptr, ptr %27, align 8, !tbaa !31
  %29 = getelementptr inbounds nuw i8, ptr %22, i64 40
  store ptr %28, ptr %29, align 8, !tbaa !33
  %indvars.iv.next = add nuw nsw i64 %indvars.iv, 1
  %30 = load ptr, ptr %8, align 8, !tbaa !46
  %31 = getelementptr i8, ptr %30, i64 4
  %.val43 = load i32, ptr %31, align 4, !tbaa !26
  %32 = sext i32 %.val43 to i64
  %33 = icmp slt i64 %indvars.iv.next, %32
  br i1 %33, label %18, label %.critedge.preheader, !llvm.loop !52

.lr.ph64:                                         ; preds = %.critedge.preheader, %.critedge
  %34 = phi ptr [ %76, %.critedge ], [ %15, %.critedge.preheader ]
  %indvars.iv67 = phi i64 [ %indvars.iv.next68, %.critedge ], [ 0, %.critedge.preheader ]
  %35 = getelementptr i8, ptr %34, i64 8
  %.val40 = load ptr, ptr %35, align 8, !tbaa !29
  %36 = getelementptr inbounds nuw ptr, ptr %.val40, i64 %indvars.iv67
  %37 = load ptr, ptr %36, align 8, !tbaa !31
  %38 = icmp eq ptr %37, null
  br i1 %38, label %.critedge, label %39

39:                                               ; preds = %.lr.ph64
  %40 = getelementptr i8, ptr %37, i64 24
  %.val45 = load i64, ptr %40, align 8
  %41 = trunc i64 %.val45 to i32
  %42 = and i32 %41, 7
  %43 = add nsw i32 %42, -7
  %narrow.i = icmp ult i32 %43, -2
  br i1 %narrow.i, label %.critedge, label %44

44:                                               ; preds = %39
  %45 = getelementptr i8, ptr %37, i64 8
  %.val47 = load ptr, ptr %45, align 8, !tbaa !32
  %46 = ptrtoint ptr %.val47 to i64
  %47 = and i64 %46, -2
  %.not.i = icmp eq i64 %47, 0
  br i1 %.not.i, label %Aig_ObjChild0Copy.exit, label %48

48:                                               ; preds = %44
  %49 = inttoptr i64 %47 to ptr
  %50 = getelementptr inbounds nuw i8, ptr %49, i64 40
  %51 = load ptr, ptr %50, align 8, !tbaa !33
  %52 = and i64 %46, 1
  %53 = ptrtoint ptr %51 to i64
  %54 = xor i64 %52, %53
  %55 = inttoptr i64 %54 to ptr
  br label %Aig_ObjChild0Copy.exit

Aig_ObjChild0Copy.exit:                           ; preds = %44, %48
  %56 = phi ptr [ %55, %48 ], [ null, %44 ]
  %57 = getelementptr i8, ptr %37, i64 16
  %.val48 = load ptr, ptr %57, align 8, !tbaa !41
  %58 = ptrtoint ptr %.val48 to i64
  %59 = and i64 %58, -2
  %.not.i56 = icmp eq i64 %59, 0
  br i1 %.not.i56, label %Aig_ObjChild1Copy.exit, label %60

60:                                               ; preds = %Aig_ObjChild0Copy.exit
  %61 = inttoptr i64 %59 to ptr
  %62 = getelementptr inbounds nuw i8, ptr %61, i64 40
  %63 = load ptr, ptr %62, align 8, !tbaa !33
  %64 = and i64 %58, 1
  %65 = ptrtoint ptr %63 to i64
  %66 = xor i64 %64, %65
  %67 = inttoptr i64 %66 to ptr
  br label %Aig_ObjChild1Copy.exit

Aig_ObjChild1Copy.exit:                           ; preds = %Aig_ObjChild0Copy.exit, %60
  %68 = phi ptr [ %67, %60 ], [ null, %Aig_ObjChild0Copy.exit ]
  %69 = tail call ptr @Aig_TableLookupTwo(ptr noundef %0, ptr noundef %56, ptr noundef %68) #24
  %70 = getelementptr inbounds nuw i8, ptr %37, i64 40
  store ptr %69, ptr %70, align 8, !tbaa !33
  %71 = icmp eq ptr %69, null
  br i1 %71, label %72, label %Aig_ObjChild1Copy.exit..critedge_crit_edge

Aig_ObjChild1Copy.exit..critedge_crit_edge:       ; preds = %Aig_ObjChild1Copy.exit
  %.pre = load ptr, ptr %14, align 8, !tbaa !51
  br label %.critedge

72:                                               ; preds = %Aig_ObjChild1Copy.exit
  %.not39 = icmp eq i32 %3, 0
  br i1 %.not39, label %106, label %73

73:                                               ; preds = %72
  %74 = trunc nuw nsw i64 %indvars.iv67 to i32
  %75 = tail call i32 (ptr, ...) @printf(ptr noundef nonnull dereferenceable(1) @.str, i32 noundef %74)
  br label %106

.critedge:                                        ; preds = %Aig_ObjChild1Copy.exit..critedge_crit_edge, %39, %.lr.ph64
  %76 = phi ptr [ %.pre, %Aig_ObjChild1Copy.exit..critedge_crit_edge ], [ %34, %39 ], [ %34, %.lr.ph64 ]
  %indvars.iv.next68 = add nuw nsw i64 %indvars.iv67, 1
  %77 = getelementptr i8, ptr %76, i64 4
  %.val42 = load i32, ptr %77, align 4, !tbaa !26
  %78 = sext i32 %.val42 to i64
  %79 = icmp slt i64 %indvars.iv.next68, %78
  br i1 %79, label %.lr.ph64, label %.critedge2, !llvm.loop !53

.critedge2:                                       ; preds = %.critedge, %.critedge.preheader
  %80 = getelementptr i8, ptr %0, i64 140
  %.val = load i32, ptr %80, align 4, !tbaa !3
  %81 = getelementptr i8, ptr %0, i64 104
  %.val54 = load i32, ptr %81, align 8, !tbaa !45
  %82 = sub nsw i32 %.val, %.val54
  %83 = icmp eq i32 %82, 1
  br i1 %83, label %84, label %106

84:                                               ; preds = %.critedge2
  %85 = getelementptr i8, ptr %1, i64 24
  %.val53 = load ptr, ptr %85, align 8, !tbaa !30
  %86 = getelementptr i8, ptr %.val53, i64 8
  %.val53.val = load ptr, ptr %86, align 8, !tbaa !29
  %87 = load ptr, ptr %.val53.val, align 8, !tbaa !31
  %88 = getelementptr i8, ptr %87, i64 8
  %.val46 = load ptr, ptr %88, align 8, !tbaa !32
  %89 = ptrtoint ptr %.val46 to i64
  %90 = and i64 %89, -2
  %.not.i57 = icmp eq i64 %90, 0
  br i1 %.not.i57, label %Aig_ObjChild0Copy.exit58, label %91

91:                                               ; preds = %84
  %92 = inttoptr i64 %90 to ptr
  %93 = getelementptr inbounds nuw i8, ptr %92, i64 40
  %94 = load ptr, ptr %93, align 8, !tbaa !33
  %95 = and i64 %89, 1
  %96 = ptrtoint ptr %94 to i64
  %97 = xor i64 %95, %96
  %98 = inttoptr i64 %97 to ptr
  br label %Aig_ObjChild0Copy.exit58

Aig_ObjChild0Copy.exit58:                         ; preds = %84, %91
  %99 = phi ptr [ %98, %91 ], [ null, %84 ]
  %100 = getelementptr i8, ptr %0, i64 24
  %.val52 = load ptr, ptr %100, align 8, !tbaa !30
  %101 = getelementptr i8, ptr %.val52, i64 8
  %.val52.val = load ptr, ptr %101, align 8, !tbaa !29
  %102 = load ptr, ptr %.val52.val, align 8, !tbaa !31
  %103 = getelementptr i8, ptr %102, i64 8
  %.val55 = load ptr, ptr %103, align 8, !tbaa !32
  %.not = icmp eq ptr %99, %.val55
  br i1 %.not, label %106, label %104

104:                                              ; preds = %Aig_ObjChild0Copy.exit58
  %.not37 = icmp eq i32 %3, 0
  br i1 %.not37, label %106, label %105

105:                                              ; preds = %104
  %puts = tail call i32 @puts(ptr nonnull dereferenceable(1) @str)
  br label %106

106:                                              ; preds = %.critedge2, %Aig_ObjChild0Copy.exit58, %104, %105, %72, %73
  %.035 = phi i32 [ 0, %73 ], [ 0, %72 ], [ 0, %105 ], [ 0, %104 ], [ 1, %Aig_ObjChild0Copy.exit58 ], [ 1, %.critedge2 ]
  ret i32 %.035
}